target datalayout = "e-m:e-p270:32:32-p271:32:32-p272:64:64-i64:64-i128:128-f80:128-n8:16:32:64-S128"
target triple = "x86_64-pc-linux-gnu"

%"class.__gnu_cxx::__normal_iterator.119" = type { ptr }
%class.anon.120 = type { ptr, ptr }
%"struct.__gnu_cxx::__ops::_Iter_comp_iter" = type { %class.anon.120 }
%"struct.__gnu_cxx::__ops::_Iter_comp_val" = type { %class.anon.120 }

; Function Attrs: mustprogress nounwind uwtable
define internal noundef zeroext i1 @"_ZN9__gnu_cxx5__ops14_Iter_comp_valIZL13EmitLeafTableRKN4llvm17DirectiveLanguageERNS2_11raw_ostreamENS2_9StringRefEE3$_1EclINS_17__normal_iteratorIPiSt6vectorIiSaIiEEEEiEEbT_RT0_"(ptr noundef nonnull align 8 dereferenceable(16) %0, ptr %1, ptr noundef nonnull align 4 dereferenceable(4) %2) #0 align 2 {
  %4 = alloca %"class.__gnu_cxx::__normal_iterator.119", align 8
  %5 = alloca ptr, align 8
  %6 = alloca ptr, align 8
  %7 = getelementptr inbounds nuw %"class.__gnu_cxx::__normal_iterator.119", ptr %4, i32 0, i32 0
  store ptr %1, ptr %7, align 8
  store ptr %0, ptr %5, align 8
  store ptr %2, ptr %6, align 8
  %8 = load ptr, ptr %5, align 8
  %9 = getelementptr inbounds nuw %"struct.__gnu_cxx::__ops::_Iter_comp_val", ptr %8, i32 0, i32 0
  %10 = call noundef nonnull align 4 dereferenceable(4) ptr @_ZNK9__gnu_cxx17__normal_iteratorIPiSt6vectorIiSaIiEEEdeEv(ptr noundef nonnull align 8 dereferenceable(8) %4) #11
  %11 = load i32, ptr %10, align 4
  %12 = load ptr, ptr %6, align 8
  %13 = load i32, ptr %12, align 4
  %14 = call noundef zeroext i1 @"_ZZL13EmitLeafTableRKN4llvm17DirectiveLanguageERNS_11raw_ostreamENS_9StringRefEENK3$_1clEii"(ptr noundef nonnull align 8 dereferenceable(16) %9, i32 noundef %11, i32 noundef %13)
  ret i1 %14
}

; Function Attrs: mustprogress nounwind uwtable
define linkonce_odr hidden void @_ZN9__gnu_cxx17__normal_iteratorIPiSt6vectorIiSaIiEEEC2ERKS1_(ptr noundef nonnull align 8 dereferenceable(8) %0, ptr noundef nonnull align 8 dereferenceable(8) %1) unnamed_addr #0 comdat align 2 {
  %3 = alloca ptr, align 8
  %4 = alloca ptr, align 8
  store ptr %0, ptr %3, align 8
  store ptr %1, ptr %4, align 8
  %5 = load ptr, ptr %3, align 8
  %6 = getelementptr inbounds nuw %"class.__gnu_cxx::__normal_iterator.119", ptr %5, i32 0, i32 0
  %7 = load ptr, ptr %4, align 8
  %8 = load ptr, ptr %7, align 8
  store ptr %8, ptr %6, align 8
  ret void
}

; Function Attrs: mustprogress nounwind uwtable
define internal void @"_ZSt11__push_heapIN9__gnu_cxx17__normal_iteratorIPiSt6vectorIiSaIiEEEEliNS0_5__ops14_Iter_comp_valIZL13EmitLeafTableRKN4llvm17DirectiveLanguageERNS9_11raw_ostreamENS9_9StringRefEE3$_1EEEvT_T0_SJ_T1_RT2_"(ptr %0, i64 noundef %1, i64 noundef %2, i32 noundef %3, ptr noundef nonnull align 8 dereferenceable(16) %4) #0 {
  %6 = alloca %"class.__gnu_cxx::__normal_iterator.119", align 8
  %7 = alloca i64, align 8
  %8 = alloca i64, align 8
  %9 = alloca i32, align 4
  %10 = alloca ptr, align 8
  %11 = alloca i64, align 8
  %12 = alloca %"class.__gnu_cxx::__normal_iterator.119", align 8
  %13 = alloca %"class.__gnu_cxx::__normal_iterator.119", align 8
  %14 = alloca %"class.__gnu_cxx::__normal_iterator.119", align 8
  %15 = alloca %"class.__gnu_cxx::__normal_iterator.119", align 8
  %16 = getelementptr inbounds nuw %"class.__gnu_cxx::__normal_iterator.119", ptr %6, i32 0, i32 0
  store ptr %0, ptr %16, align 8
  store i64 %1, ptr %7, align 8
  store i64 %2, ptr %8, align 8
  store i32 %3, ptr %9, align 4
  store ptr %4, ptr %10, align 8
  %17 = load i64, ptr %7, align 8
  %18 = sub nsw i64 %17, 1
  %19 = sdiv i64 %18, 2
  store i64 %19, ptr %11, align 8
  br label %20

20:                                               ; preds = %34, %5
  %21 = load i64, ptr %7, align 8
  %22 = load i64, ptr %8, align 8
  %23 = icmp sgt i64 %21, %22
  br i1 %23, label %24, label %32

24:                                               ; preds = %20
  %25 = load ptr, ptr %10, align 8
  %26 = load i64, ptr %11, align 8
  %27 = call ptr @_ZNK9__gnu_cxx17__normal_iteratorIPiSt6vectorIiSaIiEEEplEl(ptr noundef nonnull align 8 dereferenceable(8) %6, i64 noundef %26) #11
  %28 = getelementptr inbounds nuw %"class.__gnu_cxx::__normal_iterator.119", ptr %12, i32 0, i32 0
  store ptr %27, ptr %28, align 8
  %29 = getelementptr inbounds nuw %"class.__gnu_cxx::__normal_iterator.119", ptr %12, i32 0, i32 0
  %30 = load ptr, ptr %29, align 8
  %31 = call noundef zeroext i1 @"_ZN9__gnu_cxx5__ops14_Iter_comp_valIZL13EmitLeafTableRKN4llvm17DirectiveLanguageERNS2_11raw_ostreamENS2_9StringRefEE3$_1EclINS_17__normal_iteratorIPiSt6vectorIiSaIiEEEEiEEbT_RT0_"(ptr noundef nonnull align 8 dereferenceable(16) %25, ptr %30, ptr noundef nonnull align 4 dereferenceable(4) %9)
  br label %32

32:                                               ; preds = %24, %20
  %33 = phi i1 [ false, %20 ], [ %31, %24 ]
  br i1 %33, label %34, label %48

34:                                               ; preds = %32
  %35 = load i64, ptr %11, align 8
  %36 = call ptr @_ZNK9__gnu_cxx17__normal_iteratorIPiSt6vectorIiSaIiEEEplEl(ptr noundef nonnull align 8 dereferenceable(8) %6, i64 noundef %35) #11
  %37 = getelementptr inbounds nuw %"class.__gnu_cxx::__normal_iterator.119", ptr %13, i32 0, i32 0
  store ptr %36, ptr %37, align 8
  %38 = call noundef nonnull align 4 dereferenceable(4) ptr @_ZNK9__gnu_cxx17__normal_iteratorIPiSt6vectorIiSaIiEEEdeEv(ptr noundef nonnull align 8 dereferenceable(8) %13) #11
  %39 = load i32, ptr %38, align 4
  %40 = load i64, ptr %7, align 8
  %41 = call ptr @_ZNK9__gnu_cxx17__normal_iteratorIPiSt6vectorIiSaIiEEEplEl(ptr noundef nonnull align 8 dereferenceable(8) %6, i64 noundef %40) #11
  %42 = getelementptr inbounds nuw %"class.__gnu_cxx::__normal_iterator.119", ptr %14, i32 0, i32 0
  store ptr %41, ptr %42, align 8
  %43 = call noundef nonnull align 4 dereferenceable(4) ptr @_ZNK9__gnu_cxx17__normal_iteratorIPiSt6vectorIiSaIiEEEdeEv(ptr noundef nonnull align 8 dereferenceable(8) %14) #11
  store i32 %39, ptr %43, align 4
  %44 = load i64, ptr %11, align 8
  store i64 %44, ptr %7, align 8
  %45 = load i64, ptr %7, align 8
  %46 = sub nsw i64 %45, 1
  %47 = sdiv i64 %46, 2
  store i64 %47, ptr %11, align 8
  br label %20, !llvm.loop !45

48:                                               ; preds = %32
  %49 = load i32, ptr %9, align 4
  %50 = load i64, ptr %7, align 8
  %51 = call ptr @_ZNK9__gnu_cxx17__normal_iteratorIPiSt6vectorIiSaIiEEEplEl(ptr noundef nonnull align 8 dereferenceable(8) %6, i64 noundef %50) #11
  %52 = getelementptr inbounds nuw %"class.__gnu_cxx::__normal_iterator.119", ptr %15, i32 0, i32 0
  store ptr %51, ptr %52, align 8
  %53 = call noundef nonnull align 4 dereferenceable(4) ptr @_ZNK9__gnu_cxx17__normal_iteratorIPiSt6vectorIiSaIiEEEdeEv(ptr noundef nonnull align 8 dereferenceable(8) %15) #11
  store i32 %49, ptr %53, align 4
  ret void
}

; Function Attrs: mustprogress nounwind uwtable
define internal void @"_ZN9__gnu_cxx5__ops14_Iter_comp_valIZL13EmitLeafTableRKN4llvm17DirectiveLanguageERNS2_11raw_ostreamENS2_9StringRefEE3$_1EC2EONS0_15_Iter_comp_iterIS9_EE"(ptr noundef nonnull align 8 dereferenceable(16) %0, ptr noundef nonnull align 8 dereferenceable(16) %1) unnamed_addr #0 align 2 {
  %3 = alloca ptr, align 8
  %4 = alloca ptr, align 8
  store ptr %0, ptr %3, align 8
  store ptr %1, ptr %4, align 8
  %5 = load ptr, ptr %3, align 8
  %6 = getelementptr inbounds nuw %"struct.__gnu_cxx::__ops::_Iter_comp_val", ptr %5, i32 0, i32 0
  %7 = load ptr, ptr %4, align 8
  %8 = getelementptr inbounds nuw %"struct.__gnu_cxx::__ops::_Iter_comp_iter", ptr %7, i32 0, i32 0
  call void @llvm.memcpy.p0.p0.i64(ptr align 8 %6, ptr align 8 %8, i64 16, i1 false)
  ret void
}

; Function Attrs: mustprogress nounwind uwtable
define linkonce_odr hidden noundef nonnull align 4 dereferenceable(4) ptr @_ZNK9__gnu_cxx17__normal_iteratorIPiSt6vectorIiSaIiEEEdeEv(ptr noundef nonnull align 8 dereferenceable(8) %0) #0 comdat align 2 {
  %2 = alloca ptr, align 8
  store ptr %0, ptr %2, align 8
  %3 = load ptr, ptr %2, align 8
  %4 = getelementptr inbounds nuw %"class.__gnu_cxx::__normal_iterator.119", ptr %3, i32 0, i32 0
  %5 = load ptr, ptr %4, align 8
  ret ptr %5
}

; Function Attrs: mustprogress nounwind uwtable
define internal noundef zeroext i1 @"_ZN9__gnu_cxx5__ops15_Iter_comp_iterIZL13EmitLeafTableRKN4llvm17DirectiveLanguageERNS2_11raw_ostreamENS2_9StringRefEE3$_1EclINS_17__normal_iteratorIPiSt6vectorIiSaIiEEEESH_EEbT_T0_"(ptr noundef nonnull align 8 dereferenceable(16) %0, ptr %1, ptr %2) #0 align 2 {
  %4 = alloca %"class.__gnu_cxx::__normal_iterator.119", align 8
  %5 = alloca %"class.__gnu_cxx::__normal_iterator.119", align 8
  %6 = alloca ptr, align 8
  %7 = getelementptr inbounds nuw %"class.__gnu_cxx::__normal_iterator.119", ptr %4, i32 0, i32 0
  store ptr %1, ptr %7, align 8
  %8 = getelementptr inbounds nuw %"class.__gnu_cxx::__normal_iterator.119", ptr %5, i32 0, i32 0
  store ptr %2, ptr %8, align 8
  store ptr %0, ptr %6, align 8
  %9 = load ptr, ptr %6, align 8
  %10 = getelementptr inbounds nuw %"struct.__gnu_cxx::__ops::_Iter_comp_iter", ptr %9, i32 0, i32 0
  %11 = call noundef nonnull align 4 dereferenceable(4) ptr @_ZNK9__gnu_cxx17__normal_iteratorIPiSt6vectorIiSaIiEEEdeEv(ptr noundef nonnull align 8 dereferenceable(8) %4) #11
  %12 = load i32, ptr %11, align 4
  %13 = call noundef nonnull align 4 dereferenceable(4) ptr @_ZNK9__gnu_cxx17__normal_iteratorIPiSt6vectorIiSaIiEEEdeEv(ptr noundef nonnull align 8 dereferenceable(8) %5) #11
  %14 = load i32, ptr %13, align 4
  %15 = call noundef zeroext i1 @"_ZZL13EmitLeafTableRKN4llvm17DirectiveLanguageERNS_11raw_ostreamENS_9StringRefEENK3$_1clEii"(ptr noundef nonnull align 8 dereferenceable(16) %10, i32 noundef %12, i32 noundef %14)
  ret i1 %15
}

; Function Attrs: mustprogress nounwind uwtable
define linkonce_odr hidden ptr @_ZNK9__gnu_cxx17__normal_iteratorIPiSt6vectorIiSaIiEEEplEl(ptr noundef nonnull align 8 dereferenceable(8) %0, i64 noundef %1) #0 comdat align 2 {
  %3 = alloca %"class.__gnu_cxx::__normal_iterator.119", align 8
  %4 = alloca ptr, align 8
  %5 = alloca i64, align 8
  %6 = alloca ptr, align 8
  store ptr %0, ptr %4, align 8
  store i64 %1, ptr %5, align 8
  %7 = load ptr, ptr %4, align 8
  %8 = getelementptr inbounds nuw %"class.__gnu_cxx::__normal_iterator.119", ptr %7, i32 0, i32 0
  %9 = load ptr, ptr %8, align 8
  %10 = load i64, ptr %5, align 8
  %11 = getelementptr inbounds i32, ptr %9, i64 %10
  store ptr %11, ptr %6, align 8
  call void @_ZN9__gnu_cxx17__normal_iteratorIPiSt6vectorIiSaIiEEEC2ERKS1_(ptr noundef nonnull align 8 dereferenceable(8) %3, ptr noundef nonnull align 8 dereferenceable(8) %6) #11
  %12 = getelementptr inbounds nuw %"class.__gnu_cxx::__normal_iterator.119", ptr %3, i32 0, i32 0
  %13 = load ptr, ptr %12, align 8
  ret ptr %13
}

; Function Attrs: mustprogress nounwind uwtable
define internal void @"_ZSt13__adjust_heapIN9__gnu_cxx17__normal_iteratorIPiSt6vectorIiSaIiEEEEliNS0_5__ops15_Iter_comp_iterIZL13EmitLeafTableRKN4llvm17DirectiveLanguageERNS9_11raw_ostreamENS9_9StringRefEE3$_1EEEvT_T0_SJ_T1_T2_"(ptr %0, i64 noundef %1, i64 noundef %2, i32 noundef %3, ptr %4, ptr %5) #0 {
  %7 = alloca %"class.__gnu_cxx::__normal_iterator.119", align 8
  %8 = alloca %"struct.__gnu_cxx::__ops::_Iter_comp_iter", align 8
  %9 = alloca i64, align 8
  %10 = alloca i64, align 8
  %11 = alloca i32, align 4
  %12 = alloca i64, align 8
  %13 = alloca i64, align 8
  %14 = alloca %"class.__gnu_cxx::__normal_iterator.119", align 8
  %15 = alloca %"class.__gnu_cxx::__normal_iterator.119", align 8
  %16 = alloca %"class.__gnu_cxx::__normal_iterator.119", align 8
  %17 = alloca %"class.__gnu_cxx::__normal_iterator.119", align 8
  %18 = alloca %"class.__gnu_cxx::__normal_iterator.119", align 8
  %19 = alloca %"class.__gnu_cxx::__normal_iterator.119", align 8
  %20 = alloca %"struct.__gnu_cxx::__ops::_Iter_comp_val", align 8
  %21 = alloca %"class.__gnu_cxx::__normal_iterator.119", align 8
  %22 = getelementptr inbounds nuw %"class.__gnu_cxx::__normal_iterator.119", ptr %7, i32 0, i32 0
  store ptr %0, ptr %22, align 8
  %23 = getelementptr inbounds nuw { ptr, ptr }, ptr %8, i32 0, i32 0
  store ptr %4, ptr %23, align 8
  %24 = getelementptr inbounds nuw { ptr, ptr }, ptr %8, i32 0, i32 1
  store ptr %5, ptr %24, align 8
  store i64 %1, ptr %9, align 8
  store i64 %2, ptr %10, align 8
  store i32 %3, ptr %11, align 4
  %25 = load i64, ptr %9, align 8
  store i64 %25, ptr %12, align 8
  %26 = load i64, ptr %9, align 8
  store i64 %26, ptr %13, align 8
  br label %27

27:                                               ; preds = %52, %6
  %28 = load i64, ptr %13, align 8
  %29 = load i64, ptr %10, align 8
  %30 = sub nsw i64 %29, 1
  %31 = sdiv i64 %30, 2
  %32 = icmp slt i64 %28, %31
  br i1 %32, label %33, label %63

33:                                               ; preds = %27
  %34 = load i64, ptr %13, align 8
  %35 = add nsw i64 %34, 1
  %36 = mul nsw i64 2, %35
  store i64 %36, ptr %13, align 8
  %37 = load i64, ptr %13, align 8
  %38 = call ptr @_ZNK9__gnu_cxx17__normal_iteratorIPiSt6vectorIiSaIiEEEplEl(ptr noundef nonnull align 8 dereferenceable(8) %7, i64 noundef %37) #11
  %39 = getelementptr inbounds nuw %"class.__gnu_cxx::__normal_iterator.119", ptr %14, i32 0, i32 0
  store ptr %38, ptr %39, align 8
  %40 = load i64, ptr %13, align 8
  %41 = sub nsw i64 %40, 1
  %42 = call ptr @_ZNK9__gnu_cxx17__normal_iteratorIPiSt6vectorIiSaIiEEEplEl(ptr noundef nonnull align 8 dereferenceable(8) %7, i64 noundef %41) #11
  %43 = getelementptr inbounds nuw %"class.__gnu_cxx::__normal_iterator.119", ptr %15, i32 0, i32 0
  store ptr %42, ptr %43, align 8
  %44 = getelementptr inbounds nuw %"class.__gnu_cxx::__normal_iterator.119", ptr %14, i32 0, i32 0
  %45 = load ptr, ptr %44, align 8
  %46 = getelementptr inbounds nuw %"class.__gnu_cxx::__normal_iterator.119", ptr %15, i32 0, i32 0
  %47 = load ptr, ptr %46, align 8
  %48 = call noundef zeroext i1 @"_ZN9__gnu_cxx5__ops15_Iter_comp_iterIZL13EmitLeafTableRKN4llvm17DirectiveLanguageERNS2_11raw_ostreamENS2_9StringRefEE3$_1EclINS_17__normal_iteratorIPiSt6vectorIiSaIiEEEESH_EEbT_T0_"(ptr noundef nonnull align 8 dereferenceable(16) %8, ptr %45, ptr %47)
  br i1 %48, label %49, label %52

49:                                               ; preds = %33
  %50 = load i64, ptr %13, align 8
  %51 = add nsw i64 %50, -1
  store i64 %51, ptr %13, align 8
  br label %52

52:                                               ; preds = %49, %33
  %53 = load i64, ptr %13, align 8
  %54 = call ptr @_ZNK9__gnu_cxx17__normal_iteratorIPiSt6vectorIiSaIiEEEplEl(ptr noundef nonnull align 8 dereferenceable(8) %7, i64 noundef %53) #11
  %55 = getelementptr inbounds nuw %"class.__gnu_cxx::__normal_iterator.119", ptr %16, i32 0, i32 0
  store ptr %54, ptr %55, align 8
  %56 = call noundef nonnull align 4 dereferenceable(4) ptr @_ZNK9__gnu_cxx17__normal_iteratorIPiSt6vectorIiSaIiEEEdeEv(ptr noundef nonnull align 8 dereferenceable(8) %16) #11
  %57 = load i32, ptr %56, align 4
  %58 = load i64, ptr %9, align 8
  %59 = call ptr @_ZNK9__gnu_cxx17__normal_iteratorIPiSt6vectorIiSaIiEEEplEl(ptr noundef nonnull align 8 dereferenceable(8) %7, i64 noundef %58) #11
  %60 = getelementptr inbounds nuw %"class.__gnu_cxx::__normal_iterator.119", ptr %17, i32 0, i32 0
  store ptr %59, ptr %60, align 8
  %61 = call noundef nonnull align 4 dereferenceable(4) ptr @_ZNK9__gnu_cxx17__normal_iteratorIPiSt6vectorIiSaIiEEEdeEv(ptr noundef nonnull align 8 dereferenceable(8) %17) #11
  store i32 %57, ptr %61, align 4
  %62 = load i64, ptr %13, align 8
  store i64 %62, ptr %9, align 8
  br label %27, !llvm.loop !44

63:                                               ; preds = %27
  %64 = load i64, ptr %10, align 8
  %65 = and i64 %64, 1
  %66 = icmp eq i64 %65, 0
  br i1 %66, label %67, label %89

67:                                               ; preds = %63
  %68 = load i64, ptr %13, align 8
  %69 = load i64, ptr %10, align 8
  %70 = sub nsw i64 %69, 2
  %71 = sdiv i64 %70, 2
  %72 = icmp eq i64 %68, %71
  br i1 %72, label %73, label %89

73:                                               ; preds = %67
  %74 = load i64, ptr %13, align 8
  %75 = add nsw i64 %74, 1
  %76 = mul nsw i64 2, %75
  store i64 %76, ptr %13, align 8
  %77 = load i64, ptr %13, align 8
  %78 = sub nsw i64 %77, 1
  %79 = call ptr @_ZNK9__gnu_cxx17__normal_iteratorIPiSt6vectorIiSaIiEEEplEl(ptr noundef nonnull align 8 dereferenceable(8) %7, i64 noundef %78) #11
  %80 = getelementptr inbounds nuw %"class.__gnu_cxx::__normal_iterator.119", ptr %18, i32 0, i32 0
  store ptr %79, ptr %80, align 8
  %81 = call noundef nonnull align 4 dereferenceable(4) ptr @_ZNK9__gnu_cxx17__normal_iteratorIPiSt6vectorIiSaIiEEEdeEv(ptr noundef nonnull align 8 dereferenceable(8) %18) #11
  %82 = load i32, ptr %81, align 4
  %83 = load i64, ptr %9, align 8
  %84 = call ptr @_ZNK9__gnu_cxx17__normal_iteratorIPiSt6vectorIiSaIiEEEplEl(ptr noundef nonnull align 8 dereferenceable(8) %7, i64 noundef %83) #11
  %85 = getelementptr inbounds nuw %"class.__gnu_cxx::__normal_iterator.119", ptr %19, i32 0, i32 0
  store ptr %84, ptr %85, align 8
  %86 = call noundef nonnull align 4 dereferenceable(4) ptr @_ZNK9__gnu_cxx17__normal_iteratorIPiSt6vectorIiSaIiEEEdeEv(ptr noundef nonnull align 8 dereferenceable(8) %19) #11
  store i32 %82, ptr %86, align 4
  %87 = load i64, ptr %13, align 8
  %88 = sub nsw i64 %87, 1
  store i64 %88, ptr %9, align 8
  br label %89

89:                                               ; preds = %73, %67, %63
  call void @"_ZN9__gnu_cxx5__ops14_Iter_comp_valIZL13EmitLeafTableRKN4llvm17DirectiveLanguageERNS2_11raw_ostreamENS2_9StringRefEE3$_1EC2EONS0_15_Iter_comp_iterIS9_EE"(ptr noundef nonnull align 8 dereferenceable(16) %20, ptr noundef nonnull align 8 dereferenceable(16) %8)
  call void @llvm.memcpy.p0.p0.i64(ptr align 8 %21, ptr align 8 %7, i64 8, i1 false)
  %90 = load i64, ptr %9, align 8
  %91 = load i64, ptr %12, align 8
  %92 = load i32, ptr %11, align 4
  %93 = getelementptr inbounds nuw %"class.__gnu_cxx::__normal_iterator.119", ptr %21, i32 0, i32 0
  %94 = load ptr, ptr %93, align 8
  call void @"_ZSt11__push_heapIN9__gnu_cxx17__normal_iteratorIPiSt6vectorIiSaIiEEEEliNS0_5__ops14_Iter_comp_valIZL13EmitLeafTableRKN4llvm17DirectiveLanguageERNS9_11raw_ostreamENS9_9StringRefEE3$_1EEEvT_T0_SJ_T1_RT2_"(ptr %94, i64 noundef %90, i64 noundef %91, i32 noundef %92, ptr noundef nonnull align 8 dereferenceable(16) %20)
  ret void
}