; Function Attrs: mustprogress nofree norecurse nosync nounwind memory(read, argmem: readwrite, inaccessiblemem: none) uwtable
define internal fastcc void @"_ZSt13__adjust_heapIN9__gnu_cxx17__normal_iteratorIPiSt6vectorIiSaIiEEEEliNS0_5__ops15_Iter_comp_iterIZL13EmitLeafTableRKN4llvm17DirectiveLanguageERNS9_11raw_ostreamENS9_9StringRefEE3$_1EEEvT_T0_SJ_T1_T2_"(ptr nocapture %0, i64 noundef %1, i64 noundef %2, i32 noundef %3, ptr nocapture readonly %4, ptr nocapture readonly %5) unnamed_addr #12 {
  %7 = add nsw i64 %2, -1
  %8 = sdiv i64 %7, 2
  %9 = icmp slt i64 %1, %8
  br i1 %9, label %.lr.ph, label %._crit_edge

.lr.ph:                                           ; preds = %6
  %10 = getelementptr i8, ptr %5, i64 16
  br label %11

11:                                               ; preds = %.lr.ph, %11
  %.039 = phi i64 [ %1, %.lr.ph ], [ %spec.select, %11 ]
  %12 = shl i64 %.039, 1
  %13 = add i64 %12, 2
  %14 = getelementptr inbounds i32, ptr %0, i64 %13
  %15 = or disjoint i64 %12, 1
  %16 = getelementptr inbounds i32, ptr %0, i64 %15
  %.val.val = load ptr, ptr %4, align 8
  %.val25.val = load ptr, ptr %5, align 8
  %.val25.val26 = load i32, ptr %10, align 8
  %17 = load i32, ptr %14, align 4
  %18 = load i32, ptr %16, align 4
  %19 = tail call fastcc noundef zeroext i1 @"_ZZL13EmitLeafTableRKN4llvm17DirectiveLanguageERNS_11raw_ostreamENS_9StringRefEENK3$_1clEii"(ptr readonly %.val.val, ptr readonly %.val25.val, i32 %.val25.val26, i32 noundef %17, i32 noundef %18)
  %spec.select = select i1 %19, i64 %15, i64 %13
  %20 = getelementptr inbounds i32, ptr %0, i64 %spec.select
  %21 = load i32, ptr %20, align 4
  %22 = getelementptr inbounds i32, ptr %0, i64 %.039
  store i32 %21, ptr %22, align 4
  %23 = icmp slt i64 %spec.select, %8
  br i1 %23, label %11, label %._crit_edge, !llvm.loop !435

._crit_edge:                                      ; preds = %11, %6
  %.0.lcssa = phi i64 [ %1, %6 ], [ %spec.select, %11 ]
  %24 = and i64 %2, 1
  %25 = icmp eq i64 %24, 0
  br i1 %25, label %26, label %36

26:                                               ; preds = %._crit_edge
  %27 = add nsw i64 %2, -2
  %28 = ashr exact i64 %27, 1
  %29 = icmp eq i64 %.0.lcssa, %28
  br i1 %29, label %30, label %36

30:                                               ; preds = %26
  %31 = shl nsw i64 %.0.lcssa, 1
  %32 = or disjoint i64 %31, 1
  %33 = getelementptr inbounds i32, ptr %0, i64 %32
  %34 = load i32, ptr %33, align 4
  %35 = getelementptr inbounds i32, ptr %0, i64 %.0.lcssa
  store i32 %34, ptr %35, align 4
  br label %36

36:                                               ; preds = %30, %26, %._crit_edge
  %.1 = phi i64 [ %32, %30 ], [ %.0.lcssa, %26 ], [ %.0.lcssa, %._crit_edge ]
  %37 = icmp sgt i64 %.1, %1
  br i1 %37, label %.lr.ph.i.preheader, label %"_ZSt11__push_heapIN9__gnu_cxx17__normal_iteratorIPiSt6vectorIiSaIiEEEEliNS0_5__ops14_Iter_comp_valIZL13EmitLeafTableRKN4llvm17DirectiveLanguageERNS9_11raw_ostreamENS9_9StringRefEE3$_1EEEvT_T0_SJ_T1_RT2_.exit"

.lr.ph.i.preheader:                               ; preds = %36
  %38 = getelementptr i8, ptr %5, i64 16
  br label %.lr.ph.i

.lr.ph.i:                                         ; preds = %.lr.ph.i.preheader, %42
  %.022.i = phi i64 [ %.0923.i, %42 ], [ %.1, %.lr.ph.i.preheader ]
  %.0923.in.i = add nsw i64 %.022.i, -1
  %.0923.i = sdiv i64 %.0923.in.i, 2
  %39 = getelementptr inbounds i32, ptr %0, i64 %.0923.i
  %.val.val.i = load ptr, ptr %4, align 8
  %.val10.val.i = load ptr, ptr %5, align 8
  %.val10.val12.i = load i32, ptr %38, align 8
  %40 = load i32, ptr %39, align 4
  %41 = tail call fastcc noundef zeroext i1 @"_ZZL13EmitLeafTableRKN4llvm17DirectiveLanguageERNS_11raw_ostreamENS_9StringRefEENK3$_1clEii"(ptr readonly %.val.val.i, ptr readonly %.val10.val.i, i32 %.val10.val12.i, i32 noundef %40, i32 noundef %3)
  br i1 %41, label %42, label %"_ZSt11__push_heapIN9__gnu_cxx17__normal_iteratorIPiSt6vectorIiSaIiEEEEliNS0_5__ops14_Iter_comp_valIZL13EmitLeafTableRKN4llvm17DirectiveLanguageERNS9_11raw_ostreamENS9_9StringRefEE3$_1EEEvT_T0_SJ_T1_RT2_.exit"

42:                                               ; preds = %.lr.ph.i
  %43 = getelementptr inbounds i32, ptr %0, i64 %.022.i
  store i32 %40, ptr %43, align 4
  %44 = icmp sgt i64 %.0923.i, %1
  br i1 %44, label %.lr.ph.i, label %"_ZSt11__push_heapIN9__gnu_cxx17__normal_iteratorIPiSt6vectorIiSaIiEEEEliNS0_5__ops14_Iter_comp_valIZL13EmitLeafTableRKN4llvm17DirectiveLanguageERNS9_11raw_ostreamENS9_9StringRefEE3$_1EEEvT_T0_SJ_T1_RT2_.exit", !llvm.loop !436

"_ZSt11__push_heapIN9__gnu_cxx17__normal_iteratorIPiSt6vectorIiSaIiEEEEliNS0_5__ops14_Iter_comp_valIZL13EmitLeafTableRKN4llvm17DirectiveLanguageERNS9_11raw_ostreamENS9_9StringRefEE3$_1EEEvT_T0_SJ_T1_RT2_.exit": ; preds = %.lr.ph.i, %42, %36
  %.0.lcssa.i = phi i64 [ %.1, %36 ], [ %.022.i, %.lr.ph.i ], [ %.0923.i, %42 ]
  %45 = getelementptr inbounds i32, ptr %0, i64 %.0.lcssa.i
  store i32 %3, ptr %45, align 4
  ret void
}